target datalayout = "e-m:e-p270:32:32-p271:32:32-p272:64:64-i64:64-i128:128-f80:128-n8:16:32:64-S128"
target triple = "x86_64-pc-linux-gnu"

%struct.SDL_joylist_item = type { i32, ptr, ptr, %struct.SDL_GUID, i64, i32, ptr, ptr, i8, ptr }
%struct.SDL_GUID = type { [16 x i8] }
%struct.SDL_Joystick = type { i32, ptr, ptr, ptr, %struct.SDL_GUID, i16, i64, i8, i8, i32, ptr, i32, ptr, i32, ptr, i32, ptr, i32, ptr, i32, i32, ptr, i16, i16, i64, i64, i16, i16, i64, i64, i8, i8, i8, i64, i8, i32, i32, i32, i8, i32, ptr, i32, ptr, [3 x [3 x float]], i64, ptr, ptr, i32, i32, ptr }
%struct.SDL_sensorlist_item = type { ptr, i64, ptr, ptr }
%struct.joystick_hwdata = type { i32, i32, ptr, ptr, %struct.SDL_GUID, ptr, i8, i8, %struct.ff_effect, i32, ptr, ptr, [767 x i8], [63 x i8], [767 x i8], [63 x i8], i8, i8, i8, ptr, ptr, [63 x %struct.axis_correct], [3 x float], [3 x float], [3 x float], [3 x float], i64, i32, i8, i8, i8, i8, i8, [4 x i32], [4 x i8], [4 x %struct.hat_axis_correct], i8, i8 }
%struct.ff_effect = type { i16, i16, i16, %struct.ff_trigger, %struct.ff_replay, %union.anon }
%struct.ff_trigger = type { i16, i16 }
%struct.ff_replay = type { i16, i16 }
%union.anon = type { %struct.ff_periodic_effect }
%struct.ff_periodic_effect = type { i16, i16, i16, i16, i16, %struct.ff_envelope, i32, ptr }
%struct.ff_envelope = type { i16, i16, i16, i16 }
%struct.axis_correct = type { i8, [3 x i32], i32, i32, float }
%struct.hat_axis_correct = type { i8, [2 x i32], [2 x i32] }

; Function Attrs: nounwind uwtable
define internal void @LINUX_JoystickClose(ptr noundef %0) #0 {
  %2 = alloca ptr, align 8
  store ptr %0, ptr %2, align 8
  call void @SDL_AssertJoysticksLocked()
  %3 = load ptr, ptr %2, align 8
  %4 = getelementptr inbounds nuw %struct.SDL_Joystick, ptr %3, i32 0, i32 46
  %5 = load ptr, ptr %4, align 8
  %6 = icmp ne ptr %5, null
  br i1 %6, label %7, label %120

7:                                                ; preds = %1
  %8 = load ptr, ptr %2, align 8
  %9 = getelementptr inbounds nuw %struct.SDL_Joystick, ptr %8, i32 0, i32 46
  %10 = load ptr, ptr %9, align 8
  %11 = getelementptr inbounds nuw %struct.joystick_hwdata, ptr %10, i32 0, i32 8
  %12 = getelementptr inbounds nuw %struct.ff_effect, ptr %11, i32 0, i32 1
  %13 = load i16, ptr %12, align 2
  %14 = sext i16 %13 to i32
  %15 = icmp sge i32 %14, 0
  br i1 %15, label %16, label %35

16:                                               ; preds = %7
  %17 = load ptr, ptr %2, align 8
  %18 = getelementptr inbounds nuw %struct.SDL_Joystick, ptr %17, i32 0, i32 46
  %19 = load ptr, ptr %18, align 8
  %20 = getelementptr inbounds nuw %struct.joystick_hwdata, ptr %19, i32 0, i32 0
  %21 = load i32, ptr %20, align 8
  %22 = load ptr, ptr %2, align 8
  %23 = getelementptr inbounds nuw %struct.SDL_Joystick, ptr %22, i32 0, i32 46
  %24 = load ptr, ptr %23, align 8
  %25 = getelementptr inbounds nuw %struct.joystick_hwdata, ptr %24, i32 0, i32 8
  %26 = getelementptr inbounds nuw %struct.ff_effect, ptr %25, i32 0, i32 1
  %27 = load i16, ptr %26, align 2
  %28 = sext i16 %27 to i32
  %29 = call i32 (i32, i64, ...) @ioctl(i32 noundef %21, i64 noundef 1074021761, i32 noundef %28) #11
  %30 = load ptr, ptr %2, align 8
  %31 = getelementptr inbounds nuw %struct.SDL_Joystick, ptr %30, i32 0, i32 46
  %32 = load ptr, ptr %31, align 8
  %33 = getelementptr inbounds nuw %struct.joystick_hwdata, ptr %32, i32 0, i32 8
  %34 = getelementptr inbounds nuw %struct.ff_effect, ptr %33, i32 0, i32 1
  store i16 -1, ptr %34, align 2
  br label %35

35:                                               ; preds = %16, %7
  %36 = load ptr, ptr %2, align 8
  %37 = getelementptr inbounds nuw %struct.SDL_Joystick, ptr %36, i32 0, i32 46
  %38 = load ptr, ptr %37, align 8
  %39 = getelementptr inbounds nuw %struct.joystick_hwdata, ptr %38, i32 0, i32 0
  %40 = load i32, ptr %39, align 8
  %41 = icmp sge i32 %40, 0
  br i1 %41, label %42, label %49

42:                                               ; preds = %35
  %43 = load ptr, ptr %2, align 8
  %44 = getelementptr inbounds nuw %struct.SDL_Joystick, ptr %43, i32 0, i32 46
  %45 = load ptr, ptr %44, align 8
  %46 = getelementptr inbounds nuw %struct.joystick_hwdata, ptr %45, i32 0, i32 0
  %47 = load i32, ptr %46, align 8
  %48 = call i32 @close(i32 noundef %47)
  br label %49

49:                                               ; preds = %42, %35
  %50 = load ptr, ptr %2, align 8
  %51 = getelementptr inbounds nuw %struct.SDL_Joystick, ptr %50, i32 0, i32 46
  %52 = load ptr, ptr %51, align 8
  %53 = getelementptr inbounds nuw %struct.joystick_hwdata, ptr %52, i32 0, i32 1
  %54 = load i32, ptr %53, align 4
  %55 = icmp sge i32 %54, 0
  br i1 %55, label %56, label %63

56:                                               ; preds = %49
  %57 = load ptr, ptr %2, align 8
  %58 = getelementptr inbounds nuw %struct.SDL_Joystick, ptr %57, i32 0, i32 46
  %59 = load ptr, ptr %58, align 8
  %60 = getelementptr inbounds nuw %struct.joystick_hwdata, ptr %59, i32 0, i32 1
  %61 = load i32, ptr %60, align 4
  %62 = call i32 @close(i32 noundef %61)
  br label %63

63:                                               ; preds = %56, %49
  %64 = load ptr, ptr %2, align 8
  %65 = getelementptr inbounds nuw %struct.SDL_Joystick, ptr %64, i32 0, i32 46
  %66 = load ptr, ptr %65, align 8
  %67 = getelementptr inbounds nuw %struct.joystick_hwdata, ptr %66, i32 0, i32 2
  %68 = load ptr, ptr %67, align 8
  %69 = icmp ne ptr %68, null
  br i1 %69, label %70, label %77

70:                                               ; preds = %63
  %71 = load ptr, ptr %2, align 8
  %72 = getelementptr inbounds nuw %struct.SDL_Joystick, ptr %71, i32 0, i32 46
  %73 = load ptr, ptr %72, align 8
  %74 = getelementptr inbounds nuw %struct.joystick_hwdata, ptr %73, i32 0, i32 2
  %75 = load ptr, ptr %74, align 8
  %76 = getelementptr inbounds nuw %struct.SDL_joylist_item, ptr %75, i32 0, i32 6
  store ptr null, ptr %76, align 8
  br label %77

77:                                               ; preds = %70, %63
  %78 = load ptr, ptr %2, align 8
  %79 = getelementptr inbounds nuw %struct.SDL_Joystick, ptr %78, i32 0, i32 46
  %80 = load ptr, ptr %79, align 8
  %81 = getelementptr inbounds nuw %struct.joystick_hwdata, ptr %80, i32 0, i32 3
  %82 = load ptr, ptr %81, align 8
  %83 = icmp ne ptr %82, null
  br i1 %83, label %84, label %91

84:                                               ; preds = %77
  %85 = load ptr, ptr %2, align 8
  %86 = getelementptr inbounds nuw %struct.SDL_Joystick, ptr %85, i32 0, i32 46
  %87 = load ptr, ptr %86, align 8
  %88 = getelementptr inbounds nuw %struct.joystick_hwdata, ptr %87, i32 0, i32 3
  %89 = load ptr, ptr %88, align 8
  %90 = getelementptr inbounds nuw %struct.SDL_sensorlist_item, ptr %89, i32 0, i32 2
  store ptr null, ptr %90, align 8
  br label %91

91:                                               ; preds = %84, %77
  %92 = load ptr, ptr %2, align 8
  %93 = getelementptr inbounds nuw %struct.SDL_Joystick, ptr %92, i32 0, i32 46
  %94 = load ptr, ptr %93, align 8
  %95 = getelementptr inbounds nuw %struct.joystick_hwdata, ptr %94, i32 0, i32 19
  %96 = load ptr, ptr %95, align 8
  call void @SDL_free_REAL(ptr noundef %96)
  %97 = load ptr, ptr %2, align 8
  %98 = getelementptr inbounds nuw %struct.SDL_Joystick, ptr %97, i32 0, i32 46
  %99 = load ptr, ptr %98, align 8
  %100 = getelementptr inbounds nuw %struct.joystick_hwdata, ptr %99, i32 0, i32 20
  %101 = load ptr, ptr %100, align 8
  call void @SDL_free_REAL(ptr noundef %101)
  %102 = load ptr, ptr %2, align 8
  %103 = getelementptr inbounds nuw %struct.SDL_Joystick, ptr %102, i32 0, i32 46
  %104 = load ptr, ptr %103, align 8
  %105 = getelementptr inbounds nuw %struct.joystick_hwdata, ptr %104, i32 0, i32 11
  %106 = load ptr, ptr %105, align 8
  call void @SDL_free_REAL(ptr noundef %106)
  %107 = load ptr, ptr %2, align 8
  %108 = getelementptr inbounds nuw %struct.SDL_Joystick, ptr %107, i32 0, i32 46
  %109 = load ptr, ptr %108, align 8
  %110 = getelementptr inbounds nuw %struct.joystick_hwdata, ptr %109, i32 0, i32 10
  %111 = load ptr, ptr %110, align 8
  call void @SDL_free_REAL(ptr noundef %111)
  %112 = load ptr, ptr %2, align 8
  %113 = getelementptr inbounds nuw %struct.SDL_Joystick, ptr %112, i32 0, i32 46
  %114 = load ptr, ptr %113, align 8
  %115 = getelementptr inbounds nuw %struct.joystick_hwdata, ptr %114, i32 0, i32 5
  %116 = load ptr, ptr %115, align 8
  call void @SDL_free_REAL(ptr noundef %116)
  %117 = load ptr, ptr %2, align 8
  %118 = getelementptr inbounds nuw %struct.SDL_Joystick, ptr %117, i32 0, i32 46
  %119 = load ptr, ptr %118, align 8
  call void @SDL_free_REAL(ptr noundef %119)
  br label %120

120:                                              ; preds = %91, %1
  ret void
}