; Function Attrs: nounwind uwtable
define internal void @LINUX_JoystickClose(ptr noundef readonly captures(none) %0) #0 {
  tail call void @SDL_AssertJoysticksLocked() #18
  %2 = getelementptr inbounds nuw i8, ptr %0, i64 328
  %3 = load ptr, ptr %2, align 8
  %.not = icmp eq ptr %3, null
  br i1 %.not, label %56, label %4

4:                                                ; preds = %1
  %5 = getelementptr inbounds nuw i8, ptr %3, i64 58
  %6 = load i16, ptr %5, align 2
  %7 = icmp sgt i16 %6, -1
  br i1 %7, label %8, label %14

8:                                                ; preds = %4
  %9 = zext nneg i16 %6 to i32
  %10 = load i32, ptr %3, align 8
  %11 = tail call i32 (i32, i64, ...) @ioctl(i32 noundef %10, i64 noundef 1074021761, i32 noundef %9) #18
  %12 = load ptr, ptr %2, align 8
  %13 = getelementptr inbounds nuw i8, ptr %12, i64 58
  store i16 -1, ptr %13, align 2
  %.pre = load ptr, ptr %2, align 8
  br label %14

14:                                               ; preds = %8, %4
  %15 = phi ptr [ %.pre, %8 ], [ %3, %4 ]
  %16 = load i32, ptr %15, align 8
  %17 = icmp sgt i32 %16, -1
  br i1 %17, label %18, label %20

18:                                               ; preds = %14
  %19 = tail call i32 @close(i32 noundef %16) #18
  %.pre26 = load ptr, ptr %2, align 8
  br label %20

20:                                               ; preds = %18, %14
  %21 = phi ptr [ %.pre26, %18 ], [ %15, %14 ]
  %22 = getelementptr inbounds nuw i8, ptr %21, i64 4
  %23 = load i32, ptr %22, align 4
  %24 = icmp sgt i32 %23, -1
  br i1 %24, label %25, label %27

25:                                               ; preds = %20
  %26 = tail call i32 @close(i32 noundef %23) #18
  %.pre27 = load ptr, ptr %2, align 8
  br label %27

27:                                               ; preds = %25, %20
  %28 = phi ptr [ %.pre27, %25 ], [ %21, %20 ]
  %29 = getelementptr inbounds nuw i8, ptr %28, i64 8
  %30 = load ptr, ptr %29, align 8
  %.not24 = icmp eq ptr %30, null
  br i1 %.not24, label %33, label %31

31:                                               ; preds = %27
  %32 = getelementptr inbounds nuw i8, ptr %30, i64 56
  store ptr null, ptr %32, align 8
  %.pre28 = load ptr, ptr %2, align 8
  br label %33

33:                                               ; preds = %31, %27
  %34 = phi ptr [ %.pre28, %31 ], [ %28, %27 ]
  %35 = getelementptr inbounds nuw i8, ptr %34, i64 16
  %36 = load ptr, ptr %35, align 8
  %.not25 = icmp eq ptr %36, null
  br i1 %.not25, label %39, label %37

37:                                               ; preds = %33
  %38 = getelementptr inbounds nuw i8, ptr %36, i64 16
  store ptr null, ptr %38, align 8
  %.pre29 = load ptr, ptr %2, align 8
  br label %39

39:                                               ; preds = %37, %33
  %40 = phi ptr [ %.pre29, %37 ], [ %34, %33 ]
  %41 = getelementptr inbounds nuw i8, ptr %40, i64 1792
  %42 = load ptr, ptr %41, align 8
  tail call void @SDL_free_REAL(ptr noundef %42) #18
  %43 = load ptr, ptr %2, align 8
  %44 = getelementptr inbounds nuw i8, ptr %43, i64 1800
  %45 = load ptr, ptr %44, align 8
  tail call void @SDL_free_REAL(ptr noundef %45) #18
  %46 = load ptr, ptr %2, align 8
  %47 = getelementptr inbounds nuw i8, ptr %46, i64 120
  %48 = load ptr, ptr %47, align 8
  tail call void @SDL_free_REAL(ptr noundef %48) #18
  %49 = load ptr, ptr %2, align 8
  %50 = getelementptr inbounds nuw i8, ptr %49, i64 112
  %51 = load ptr, ptr %50, align 8
  tail call void @SDL_free_REAL(ptr noundef %51) #18
  %52 = load ptr, ptr %2, align 8
  %53 = getelementptr inbounds nuw i8, ptr %52, i64 40
  %54 = load ptr, ptr %53, align 8
  tail call void @SDL_free_REAL(ptr noundef %54) #18
  %55 = load ptr, ptr %2, align 8
  tail call void @SDL_free_REAL(ptr noundef %55) #18
  br label %56

56:                                               ; preds = %39, %1
  ret void
}